target datalayout = "e-m:e-p270:32:32-p271:32:32-p272:64:64-i64:64-i128:128-f80:128-n8:16:32:64-S128"
target triple = "x86_64-unknown-linux-gnu"

; Function Attrs: mustprogress nounwind uwtable
define linkonce_odr noundef i32 @_ZN6icu_7516CollationBuilder18strengthFromTempCEEl(i64 noundef %tempCE) #3 comdat align 2 {
entry:
  %tempCE.addr = alloca i64, align 8
  store i64 %tempCE, ptr %tempCE.addr, align 8
  %0 = load i64, ptr %tempCE.addr, align 8
  %conv = trunc i64 %0 to i32
  %shr = ashr i32 %conv, 8
  %and = and i32 %shr, 3
  ret i32 %and
}

; Function Attrs: mustprogress nounwind uwtable
define linkonce_odr noundef signext i8 @_ZN6icu_7516CollationBuilder8isTempCEEl(i64 noundef %ce) #3 comdat align 2 {
entry:
  %ce.addr = alloca i64, align 8
  %sec = alloca i32, align 4
  store i64 %ce, ptr %ce.addr, align 8
  %0 = load i64, ptr %ce.addr, align 8
  %conv = trunc i64 %0 to i32
  %shr = lshr i32 %conv, 24
  store i32 %shr, ptr %sec, align 4
  %1 = load i32, ptr %sec, align 4
  %cmp = icmp ule i32 6, %1
  br i1 %cmp, label %land.rhs, label %land.end

land.rhs:                                         ; preds = %entry
  %2 = load i32, ptr %sec, align 4
  %cmp1 = icmp ule i32 %2, 69
  br label %land.end

land.end:                                         ; preds = %land.rhs, %entry
  %3 = phi i1 [ false, %entry ], [ %cmp1, %land.rhs ]
  %conv2 = zext i1 %3 to i8
  ret i8 %conv2
}

; Function Attrs: mustprogress uwtable
define noundef i32 @_ZN6icu_7516CollationBuilder10ceStrengthEl(i64 noundef %ce) #0 align 2 {
entry:
  %ce.addr = alloca i64, align 8
  store i64 %ce, ptr %ce.addr, align 8
  %0 = load i64, ptr %ce.addr, align 8
  %call = call noundef signext i8 @_ZN6icu_7516CollationBuilder8isTempCEEl(i64 noundef %0)
  %tobool = icmp ne i8 %call, 0
  br i1 %tobool, label %cond.true, label %cond.false

cond.true:                                        ; preds = %entry
  %1 = load i64, ptr %ce.addr, align 8
  %call1 = call noundef i32 @_ZN6icu_7516CollationBuilder18strengthFromTempCEEl(i64 noundef %1)
  br label %cond.end12

cond.false:                                       ; preds = %entry
  %2 = load i64, ptr %ce.addr, align 8
  %and = and i64 %2, -72057594037927936
  %cmp = icmp ne i64 %and, 0
  br i1 %cmp, label %cond.true2, label %cond.false3

cond.true2:                                       ; preds = %cond.false
  br label %cond.end10

cond.false3:                                      ; preds = %cond.false
  %3 = load i64, ptr %ce.addr, align 8
  %conv = trunc i64 %3 to i32
  %and4 = and i32 %conv, -16777216
  %cmp5 = icmp ne i32 %and4, 0
  br i1 %cmp5, label %cond.true6, label %cond.false7

cond.true6:                                       ; preds = %cond.false3
  br label %cond.end

cond.false7:                                      ; preds = %cond.false3
  %4 = load i64, ptr %ce.addr, align 8
  %cmp8 = icmp ne i64 %4, 0
  %cond = select i1 %cmp8, i32 2, i32 15
  br label %cond.end

cond.end:                                         ; preds = %cond.false7, %cond.true6
  %cond9 = phi i32 [ 1, %cond.true6 ], [ %cond, %cond.false7 ]
  br label %cond.end10

cond.end10:                                       ; preds = %cond.end, %cond.true2
  %cond11 = phi i32 [ 0, %cond.true2 ], [ %cond9, %cond.end ]
  br label %cond.end12

cond.end12:                                       ; preds = %cond.end10, %cond.true
  %cond13 = phi i32 [ %call1, %cond.true ], [ %cond11, %cond.end10 ]
  ret i32 %cond13
}