; Function Attrs: mustprogress nofree norecurse nosync nounwind willreturn memory(none) uwtable
define noundef i32 @_ZN6icu_7516CollationBuilder10ceStrengthEl(i64 noundef %ce) local_unnamed_addr #6 align 2 {
entry:
  %conv.i = trunc i64 %ce to i32
  %0 = add i32 %conv.i, -1174405120
  %1 = icmp ult i32 %0, -1073741824
  br i1 %1, label %cond.false, label %cond.true

cond.true:                                        ; preds = %entry
  %shr.i = lshr i32 %conv.i, 8
  %and.i = and i32 %shr.i, 3
  br label %cond.end12

cond.false:                                       ; preds = %entry
  %cmp.not = icmp ult i64 %ce, 72057594037927936
  br i1 %cmp.not, label %cond.false3, label %cond.end12

cond.false3:                                      ; preds = %cond.false
  %2 = and i64 %ce, 4278190080
  %cmp5.not = icmp eq i64 %2, 0
  %cmp8.not = icmp eq i64 %ce, 0
  %cond = select i1 %cmp8.not, i32 15, i32 2
  %cond9 = select i1 %cmp5.not, i32 %cond, i32 1
  br label %cond.end12

cond.end12:                                       ; preds = %cond.false3, %cond.false, %cond.true
  %cond13 = phi i32 [ %and.i, %cond.true ], [ %cond9, %cond.false3 ], [ 0, %cond.false ]
  ret i32 %cond13
}